target datalayout = "e-m:e-p270:32:32-p271:32:32-p272:64:64-i64:64-i128:128-f80:128-n8:16:32:64-S128"
target triple = "x86_64-pc-linux-gnu"

%"class.std::__cxx11::basic_string" = type { %"struct.std::__cxx11::basic_string<char>::_Alloc_hider", i64, %union.anon }
%"struct.std::__cxx11::basic_string<char>::_Alloc_hider" = type { ptr }
%union.anon = type { i64, [8 x i8] }
%"struct.cmCTestVC::Revision" = type { %"class.std::__cxx11::basic_string", %"class.std::__cxx11::basic_string", %"class.std::__cxx11::basic_string", %"class.std::__cxx11::basic_string", %"class.std::__cxx11::basic_string", %"class.std::__cxx11::basic_string", %"class.std::__cxx11::basic_string", %"class.std::__cxx11::basic_string" }
%class.cmCTestVC = type <{ ptr, ptr, ptr, %"class.std::__cxx11::basic_string", %"class.std::__cxx11::basic_string", %"class.std::__cxx11::basic_string", %"struct.cmCTestVC::Revision", [3 x i32], [4 x i8] }>
%"struct.cmCTestSVN::SVNInfo" = type { %"class.std::__cxx11::basic_string", %"class.std::__cxx11::basic_string", %"class.std::__cxx11::basic_string", %"class.std::__cxx11::basic_string", %"class.std::__cxx11::basic_string", %"class.std::__cxx11::basic_string" }
%"class.__gnu_cxx::__normal_iterator" = type { ptr }
%"struct.cmCTestGlobalVC::Change" = type { i8, %"class.std::__cxx11::basic_string" }
%"struct.std::_Vector_base.17" = type { %"struct.std::_Vector_base<cmCTestGlobalVC::Change, std::allocator<cmCTestGlobalVC::Change>>::_Vector_impl" }
%"struct.std::_Vector_base<cmCTestGlobalVC::Change, std::allocator<cmCTestGlobalVC::Change>>::_Vector_impl" = type { %"struct.std::_Vector_base<cmCTestGlobalVC::Change, std::allocator<cmCTestGlobalVC::Change>>::_Vector_impl_data" }
%"struct.std::_Vector_base<cmCTestGlobalVC::Change, std::allocator<cmCTestGlobalVC::Change>>::_Vector_impl_data" = type { ptr, ptr, ptr }

@.str.8 = private unnamed_addr constant [2 x i8] c"\0A\00", align 1
@.str.18 = private unnamed_addr constant [2 x i8] c"/\00", align 1
@.str.19 = private unnamed_addr constant [16 x i8] c"Guessed Base = \00", align 1

; Function Attrs: mustprogress nounwind uwtable
define linkonce_odr dso_local noundef nonnull align 8 dereferenceable(8) ptr @_ZNK9__gnu_cxx17__normal_iteratorIPKN15cmCTestGlobalVC6ChangeESt6vectorIS2_SaIS2_EEE4baseEv(ptr noundef nonnull align 8 dereferenceable(8) %0) #5 comdat align 2 {
  %2 = alloca ptr, align 8
  store ptr %0, ptr %2, align 8
  %3 = load ptr, ptr %2, align 8
  %4 = getelementptr inbounds %"class.__gnu_cxx::__normal_iterator", ptr %3, i32 0, i32 0
  ret ptr %4
}

; Function Attrs: mustprogress nounwind uwtable
define linkonce_odr dso_local void @_ZN9__gnu_cxx17__normal_iteratorIPKN15cmCTestGlobalVC6ChangeESt6vectorIS2_SaIS2_EEEC2ERKS4_(ptr noundef nonnull align 8 dereferenceable(8) %0, ptr noundef nonnull align 8 dereferenceable(8) %1) unnamed_addr #5 comdat align 2 {
  %3 = alloca ptr, align 8
  %4 = alloca ptr, align 8
  store ptr %0, ptr %3, align 8
  store ptr %1, ptr %4, align 8
  %5 = load ptr, ptr %3, align 8
  %6 = getelementptr inbounds %"class.__gnu_cxx::__normal_iterator", ptr %5, i32 0, i32 0
  %7 = load ptr, ptr %4, align 8
  %8 = load ptr, ptr %7, align 8
  store ptr %8, ptr %6, align 8
  ret void
}

; Function Attrs: mustprogress nounwind uwtable
define linkonce_odr dso_local noundef nonnull align 8 dereferenceable(8) ptr @_ZN9__gnu_cxx17__normal_iteratorIPKN15cmCTestGlobalVC6ChangeESt6vectorIS2_SaIS2_EEEppEv(ptr noundef nonnull align 8 dereferenceable(8) %0) #5 comdat align 2 {
  %2 = alloca ptr, align 8
  store ptr %0, ptr %2, align 8
  %3 = load ptr, ptr %2, align 8
  %4 = getelementptr inbounds %"class.__gnu_cxx::__normal_iterator", ptr %3, i32 0, i32 0
  %5 = load ptr, ptr %4, align 8
  %6 = getelementptr inbounds %"struct.cmCTestGlobalVC::Change", ptr %5, i32 1
  store ptr %6, ptr %4, align 8
  ret ptr %3
}

; Function Attrs: mustprogress nounwind uwtable
define linkonce_odr dso_local noundef ptr @_ZNK9__gnu_cxx17__normal_iteratorIPKN15cmCTestGlobalVC6ChangeESt6vectorIS2_SaIS2_EEEptEv(ptr noundef nonnull align 8 dereferenceable(8) %0) #5 comdat align 2 {
  %2 = alloca ptr, align 8
  store ptr %0, ptr %2, align 8
  %3 = load ptr, ptr %2, align 8
  %4 = getelementptr inbounds %"class.__gnu_cxx::__normal_iterator", ptr %3, i32 0, i32 0
  %5 = load ptr, ptr %4, align 8
  ret ptr %5
}

; Function Attrs: mustprogress nounwind uwtable
define linkonce_odr dso_local noundef zeroext i1 @_ZN9__gnu_cxxneIPKN15cmCTestGlobalVC6ChangeESt6vectorIS2_SaIS2_EEEEbRKNS_17__normal_iteratorIT_T0_EESD_(ptr noundef nonnull align 8 dereferenceable(8) %0, ptr noundef nonnull align 8 dereferenceable(8) %1) #5 comdat {
  %3 = alloca ptr, align 8
  %4 = alloca ptr, align 8
  store ptr %0, ptr %3, align 8
  store ptr %1, ptr %4, align 8
  %5 = load ptr, ptr %3, align 8
  %6 = call noundef nonnull align 8 dereferenceable(8) ptr @_ZNK9__gnu_cxx17__normal_iteratorIPKN15cmCTestGlobalVC6ChangeESt6vectorIS2_SaIS2_EEE4baseEv(ptr noundef nonnull align 8 dereferenceable(8) %5) #3
  %7 = load ptr, ptr %6, align 8
  %8 = load ptr, ptr %4, align 8
  %9 = call noundef nonnull align 8 dereferenceable(8) ptr @_ZNK9__gnu_cxx17__normal_iteratorIPKN15cmCTestGlobalVC6ChangeESt6vectorIS2_SaIS2_EEE4baseEv(ptr noundef nonnull align 8 dereferenceable(8) %8) #3
  %10 = load ptr, ptr %9, align 8
  %11 = icmp ne ptr %7, %10
  ret i1 %11
}

; Function Attrs: mustprogress nounwind uwtable
define linkonce_odr dso_local ptr @_ZNKSt6vectorIN15cmCTestGlobalVC6ChangeESaIS1_EE3endEv(ptr noundef nonnull align 8 dereferenceable(24) %0) #5 comdat align 2 {
  %2 = alloca %"class.__gnu_cxx::__normal_iterator", align 8
  %3 = alloca ptr, align 8
  store ptr %0, ptr %3, align 8
  %4 = load ptr, ptr %3, align 8
  %5 = getelementptr inbounds %"struct.std::_Vector_base.17", ptr %4, i32 0, i32 0
  %6 = getelementptr inbounds %"struct.std::_Vector_base<cmCTestGlobalVC::Change, std::allocator<cmCTestGlobalVC::Change>>::_Vector_impl_data", ptr %5, i32 0, i32 1
  call void @_ZN9__gnu_cxx17__normal_iteratorIPKN15cmCTestGlobalVC6ChangeESt6vectorIS2_SaIS2_EEEC2ERKS4_(ptr noundef nonnull align 8 dereferenceable(8) %2, ptr noundef nonnull align 8 dereferenceable(8) %6) #3
  %7 = getelementptr inbounds %"class.__gnu_cxx::__normal_iterator", ptr %2, i32 0, i32 0
  %8 = load ptr, ptr %7, align 8
  ret ptr %8
}

; Function Attrs: mustprogress nounwind uwtable
define linkonce_odr dso_local ptr @_ZNKSt6vectorIN15cmCTestGlobalVC6ChangeESaIS1_EE5beginEv(ptr noundef nonnull align 8 dereferenceable(24) %0) #5 comdat align 2 {
  %2 = alloca %"class.__gnu_cxx::__normal_iterator", align 8
  %3 = alloca ptr, align 8
  store ptr %0, ptr %3, align 8
  %4 = load ptr, ptr %3, align 8
  %5 = getelementptr inbounds %"struct.std::_Vector_base.17", ptr %4, i32 0, i32 0
  %6 = getelementptr inbounds %"struct.std::_Vector_base<cmCTestGlobalVC::Change, std::allocator<cmCTestGlobalVC::Change>>::_Vector_impl_data", ptr %5, i32 0, i32 0
  call void @_ZN9__gnu_cxx17__normal_iteratorIPKN15cmCTestGlobalVC6ChangeESt6vectorIS2_SaIS2_EEEC2ERKS4_(ptr noundef nonnull align 8 dereferenceable(8) %2, ptr noundef nonnull align 8 dereferenceable(8) %6) #3
  %7 = getelementptr inbounds %"class.__gnu_cxx::__normal_iterator", ptr %2, i32 0, i32 0
  %8 = load ptr, ptr %7, align 8
  ret ptr %8
}

; Function Attrs: mustprogress uwtable
define dso_local void @_ZN10cmCTestSVN9GuessBaseERNS_7SVNInfoERKSt6vectorIN15cmCTestGlobalVC6ChangeESaIS4_EE(ptr noundef nonnull align 8 dereferenceable(816) %0, ptr noundef nonnull align 8 dereferenceable(192) %1, ptr noundef nonnull align 8 dereferenceable(24) %2) #4 align 2 personality ptr @__gxx_personality_v0 {
  %4 = alloca ptr, align 8
  %5 = alloca ptr, align 8
  %6 = alloca ptr, align 8
  %7 = alloca i64, align 8
  %8 = alloca %"class.std::__cxx11::basic_string", align 8
  %9 = alloca %"class.std::__cxx11::basic_string", align 8
  %10 = alloca ptr, align 8
  %11 = alloca i32, align 4
  %12 = alloca %"class.__gnu_cxx::__normal_iterator", align 8
  %13 = alloca %"class.__gnu_cxx::__normal_iterator", align 8
  store ptr %0, ptr %4, align 8
  store ptr %1, ptr %5, align 8
  store ptr %2, ptr %6, align 8
  %14 = load ptr, ptr %4, align 8
  %15 = load ptr, ptr %5, align 8
  %16 = getelementptr inbounds %"struct.cmCTestSVN::SVNInfo", ptr %15, i32 0, i32 1
  %17 = call noundef i64 @_ZNKSt7__cxx1112basic_stringIcSt11char_traitsIcESaIcEE4findEcm(ptr noundef nonnull align 8 dereferenceable(32) %16, i8 noundef signext 47, i64 noundef 0) #3
  store i64 %17, ptr %7, align 8
  br label %18

18:                                               ; preds = %68, %3
  %19 = load ptr, ptr %5, align 8
  %20 = getelementptr inbounds %"struct.cmCTestSVN::SVNInfo", ptr %19, i32 0, i32 3
  %21 = call noundef zeroext i1 @_ZNKSt7__cxx1112basic_stringIcSt11char_traitsIcESaIcEE5emptyEv(ptr noundef nonnull align 8 dereferenceable(32) %20) #3
  br i1 %21, label %22, label %25

22:                                               ; preds = %18
  %23 = load i64, ptr %7, align 8
  %24 = icmp ne i64 %23, -1
  br label %25

25:                                               ; preds = %22, %18
  %26 = phi i1 [ false, %18 ], [ %24, %22 ]
  br i1 %26, label %27, label %74

27:                                               ; preds = %25
  %28 = load ptr, ptr %5, align 8
  %29 = getelementptr inbounds %"struct.cmCTestSVN::SVNInfo", ptr %28, i32 0, i32 1
  %30 = load i64, ptr %7, align 8
  call void @_ZNKSt7__cxx1112basic_stringIcSt11char_traitsIcESaIcEE6substrEmm(ptr dead_on_unwind writable sret(%"class.std::__cxx11::basic_string") align 8 %9, ptr noundef nonnull align 8 dereferenceable(32) %29, i64 noundef %30, i64 noundef -1)
  invoke void @_ZN7cmCTest9DecodeURLERKNSt7__cxx1112basic_stringIcSt11char_traitsIcESaIcEEE(ptr dead_on_unwind writable sret(%"class.std::__cxx11::basic_string") align 8 %8, ptr noundef nonnull align 8 dereferenceable(32) %9)
          to label %31 unwind label %56

31:                                               ; preds = %27
  call void @_ZNSt7__cxx1112basic_stringIcSt11char_traitsIcESaIcEED1Ev(ptr noundef nonnull align 8 dereferenceable(32) %9) #3
  %32 = load ptr, ptr %6, align 8
  %33 = call ptr @_ZNKSt6vectorIN15cmCTestGlobalVC6ChangeESaIS1_EE5beginEv(ptr noundef nonnull align 8 dereferenceable(24) %32) #3
  %34 = getelementptr inbounds %"class.__gnu_cxx::__normal_iterator", ptr %12, i32 0, i32 0
  store ptr %33, ptr %34, align 8
  br label %35

35:                                               ; preds = %65, %31
  %36 = load ptr, ptr %5, align 8
  %37 = getelementptr inbounds %"struct.cmCTestSVN::SVNInfo", ptr %36, i32 0, i32 3
  %38 = call noundef zeroext i1 @_ZNKSt7__cxx1112basic_stringIcSt11char_traitsIcESaIcEE5emptyEv(ptr noundef nonnull align 8 dereferenceable(32) %37) #3
  br i1 %38, label %39, label %44

39:                                               ; preds = %35
  %40 = load ptr, ptr %6, align 8
  %41 = call ptr @_ZNKSt6vectorIN15cmCTestGlobalVC6ChangeESaIS1_EE3endEv(ptr noundef nonnull align 8 dereferenceable(24) %40) #3
  %42 = getelementptr inbounds %"class.__gnu_cxx::__normal_iterator", ptr %13, i32 0, i32 0
  store ptr %41, ptr %42, align 8
  %43 = call noundef zeroext i1 @_ZN9__gnu_cxxneIPKN15cmCTestGlobalVC6ChangeESt6vectorIS2_SaIS2_EEEEbRKNS_17__normal_iteratorIT_T0_EESD_(ptr noundef nonnull align 8 dereferenceable(8) %12, ptr noundef nonnull align 8 dereferenceable(8) %13) #3
  br label %44

44:                                               ; preds = %39, %35
  %45 = phi i1 [ false, %35 ], [ %43, %39 ]
  br i1 %45, label %46, label %67

46:                                               ; preds = %44
  %47 = call noundef ptr @_ZNK9__gnu_cxx17__normal_iteratorIPKN15cmCTestGlobalVC6ChangeESt6vectorIS2_SaIS2_EEEptEv(ptr noundef nonnull align 8 dereferenceable(8) %12) #3
  %48 = getelementptr inbounds %"struct.cmCTestGlobalVC::Change", ptr %47, i32 0, i32 1
  %49 = invoke noundef zeroext i1 @_ZL20cmCTestSVNPathStartsRKNSt7__cxx1112basic_stringIcSt11char_traitsIcESaIcEEES6_(ptr noundef nonnull align 8 dereferenceable(32) %48, ptr noundef nonnull align 8 dereferenceable(32) %8)
          to label %50 unwind label %60

50:                                               ; preds = %46
  br i1 %49, label %51, label %64

51:                                               ; preds = %50
  %52 = load ptr, ptr %5, align 8
  %53 = getelementptr inbounds %"struct.cmCTestSVN::SVNInfo", ptr %52, i32 0, i32 3
  %54 = invoke noundef nonnull align 8 dereferenceable(32) ptr @_ZNSt7__cxx1112basic_stringIcSt11char_traitsIcESaIcEEaSERKS4_(ptr noundef nonnull align 8 dereferenceable(32) %53, ptr noundef nonnull align 8 dereferenceable(32) %8)
          to label %55 unwind label %60

55:                                               ; preds = %51
  br label %64

56:                                               ; preds = %27
  %57 = landingpad { ptr, i32 }
          cleanup
  %58 = extractvalue { ptr, i32 } %57, 0
  store ptr %58, ptr %10, align 8
  %59 = extractvalue { ptr, i32 } %57, 1
  store i32 %59, ptr %11, align 4
  call void @_ZNSt7__cxx1112basic_stringIcSt11char_traitsIcESaIcEED1Ev(ptr noundef nonnull align 8 dereferenceable(32) %9) #3
  br label %85

60:                                               ; preds = %51, %46
  %61 = landingpad { ptr, i32 }
          cleanup
  %62 = extractvalue { ptr, i32 } %61, 0
  store ptr %62, ptr %10, align 8
  %63 = extractvalue { ptr, i32 } %61, 1
  store i32 %63, ptr %11, align 4
  call void @_ZNSt7__cxx1112basic_stringIcSt11char_traitsIcESaIcEED1Ev(ptr noundef nonnull align 8 dereferenceable(32) %8) #3
  br label %85

64:                                               ; preds = %55, %50
  br label %65

65:                                               ; preds = %64
  %66 = call noundef nonnull align 8 dereferenceable(8) ptr @_ZN9__gnu_cxx17__normal_iteratorIPKN15cmCTestGlobalVC6ChangeESt6vectorIS2_SaIS2_EEEppEv(ptr noundef nonnull align 8 dereferenceable(8) %12) #3
  br label %35, !llvm.loop !5

67:                                               ; preds = %44
  call void @_ZNSt7__cxx1112basic_stringIcSt11char_traitsIcESaIcEED1Ev(ptr noundef nonnull align 8 dereferenceable(32) %8) #3
  br label %68

68:                                               ; preds = %67
  %69 = load ptr, ptr %5, align 8
  %70 = getelementptr inbounds %"struct.cmCTestSVN::SVNInfo", ptr %69, i32 0, i32 1
  %71 = load i64, ptr %7, align 8
  %72 = add i64 %71, 1
  %73 = call noundef i64 @_ZNKSt7__cxx1112basic_stringIcSt11char_traitsIcESaIcEE4findEcm(ptr noundef nonnull align 8 dereferenceable(32) %70, i8 noundef signext 47, i64 noundef %72) #3
  store i64 %73, ptr %7, align 8
  br label %18, !llvm.loop !7

74:                                               ; preds = %25
  %75 = load ptr, ptr %5, align 8
  %76 = getelementptr inbounds %"struct.cmCTestSVN::SVNInfo", ptr %75, i32 0, i32 3
  %77 = call noundef nonnull align 8 dereferenceable(32) ptr @_ZNSt7__cxx1112basic_stringIcSt11char_traitsIcESaIcEEpLEPKc(ptr noundef nonnull align 8 dereferenceable(32) %76, ptr noundef @.str.18)
  %78 = getelementptr inbounds %class.cmCTestVC, ptr %14, i32 0, i32 2
  %79 = load ptr, ptr %78, align 8
  %80 = call noundef nonnull align 8 dereferenceable(8) ptr @_ZStlsISt11char_traitsIcEERSt13basic_ostreamIcT_ES5_PKc(ptr noundef nonnull align 8 dereferenceable(8) %79, ptr noundef @.str.19)
  %81 = load ptr, ptr %5, align 8
  %82 = getelementptr inbounds %"struct.cmCTestSVN::SVNInfo", ptr %81, i32 0, i32 3
  %83 = call noundef nonnull align 8 dereferenceable(8) ptr @_ZStlsIcSt11char_traitsIcESaIcEERSt13basic_ostreamIT_T0_ES7_RKNSt7__cxx1112basic_stringIS4_S5_T1_EE(ptr noundef nonnull align 8 dereferenceable(8) %80, ptr noundef nonnull align 8 dereferenceable(32) %82)
  %84 = call noundef nonnull align 8 dereferenceable(8) ptr @_ZStlsISt11char_traitsIcEERSt13basic_ostreamIcT_ES5_PKc(ptr noundef nonnull align 8 dereferenceable(8) %83, ptr noundef @.str.8)
  ret void

85:                                               ; preds = %60, %56
  %86 = load ptr, ptr %10, align 8
  %87 = load i32, ptr %11, align 4
  %88 = insertvalue { ptr, i32 } poison, ptr %86, 0
  %89 = insertvalue { ptr, i32 } %88, i32 %87, 1
  resume { ptr, i32 } %89
}