; Function Attrs: mustprogress uwtable
define dso_local void @_ZN10cmCTestSVN9GuessBaseERNS_7SVNInfoERKSt6vectorIN15cmCTestGlobalVC6ChangeESaIS4_EE(ptr nocapture noundef nonnull readonly align 8 dereferenceable(816) %0, ptr noundef nonnull align 8 dereferenceable(192) %1, ptr nocapture noundef nonnull readonly align 8 dereferenceable(24) %2) local_unnamed_addr #3 align 2 personality ptr @__gxx_personality_v0 {
  %4 = alloca %"class.std::__cxx11::basic_string", align 8
  %5 = alloca %"class.std::__cxx11::basic_string", align 8
  %6 = getelementptr inbounds i8, ptr %1, i64 32
  %7 = tail call noundef i64 @_ZNKSt7__cxx1112basic_stringIcSt11char_traitsIcESaIcEE4findEcm(ptr noundef nonnull align 8 dereferenceable(32) %6, i8 noundef signext 47, i64 noundef 0) #19
  %8 = getelementptr inbounds i8, ptr %1, i64 96
  %9 = tail call noundef zeroext i1 @_ZNKSt7__cxx1112basic_stringIcSt11char_traitsIcESaIcEE5emptyEv(ptr noundef nonnull align 8 dereferenceable(32) %8) #19
  %10 = icmp ne i64 %7, -1
  %11 = and i1 %9, %10
  br i1 %11, label %.lr.ph28, label %._crit_edge

.lr.ph28:                                         ; preds = %3
  %12 = getelementptr inbounds i8, ptr %2, i64 8
  br label %13

13:                                               ; preds = %.lr.ph28, %.critedge
  %.01627 = phi i64 [ %7, %.lr.ph28 ], [ %33, %.critedge ]
  call void @_ZNKSt7__cxx1112basic_stringIcSt11char_traitsIcESaIcEE6substrEmm(ptr dead_on_unwind nonnull writable sret(%"class.std::__cxx11::basic_string") align 8 %5, ptr noundef nonnull align 8 dereferenceable(32) %6, i64 noundef %.01627, i64 noundef -1)
  invoke void @_ZN7cmCTest9DecodeURLERKNSt7__cxx1112basic_stringIcSt11char_traitsIcESaIcEEE(ptr dead_on_unwind nonnull writable sret(%"class.std::__cxx11::basic_string") align 8 %4, ptr noundef nonnull align 8 dereferenceable(32) %5)
          to label %14 unwind label %23

14:                                               ; preds = %13
  call void @_ZNSt7__cxx1112basic_stringIcSt11char_traitsIcESaIcEED1Ev(ptr noundef nonnull align 8 dereferenceable(32) %5) #19
  %15 = load ptr, ptr %2, align 8
  %16 = call noundef zeroext i1 @_ZNKSt7__cxx1112basic_stringIcSt11char_traitsIcESaIcEE5emptyEv(ptr noundef nonnull align 8 dereferenceable(32) %8) #19
  %17 = load ptr, ptr %12, align 8
  %18 = icmp ne ptr %15, %17
  %or.cond25 = select i1 %16, i1 %18, i1 false
  br i1 %or.cond25, label %.lr.ph, label %.critedge

.lr.ph:                                           ; preds = %14, %27
  %.sroa.018.026 = phi ptr [ %28, %27 ], [ %15, %14 ]
  %19 = getelementptr inbounds i8, ptr %.sroa.018.026, i64 8
  %20 = call fastcc noundef zeroext i1 @_ZL20cmCTestSVNPathStartsRKNSt7__cxx1112basic_stringIcSt11char_traitsIcESaIcEEES6_(ptr noundef nonnull align 8 dereferenceable(32) %19, ptr noundef nonnull align 8 dereferenceable(32) %4)
  br i1 %20, label %21, label %27

21:                                               ; preds = %.lr.ph
  %22 = invoke noundef nonnull align 8 dereferenceable(32) ptr @_ZNSt7__cxx1112basic_stringIcSt11char_traitsIcESaIcEEaSERKS4_(ptr noundef nonnull align 8 dereferenceable(32) %8, ptr noundef nonnull align 8 dereferenceable(32) %4)
          to label %27 unwind label %25

23:                                               ; preds = %13
  %24 = landingpad { ptr, i32 }
          cleanup
  br label %43

25:                                               ; preds = %21
  %26 = landingpad { ptr, i32 }
          cleanup
  br label %43

27:                                               ; preds = %.lr.ph, %21
  %28 = getelementptr inbounds i8, ptr %.sroa.018.026, i64 40
  %29 = call noundef zeroext i1 @_ZNKSt7__cxx1112basic_stringIcSt11char_traitsIcESaIcEE5emptyEv(ptr noundef nonnull align 8 dereferenceable(32) %8) #19
  %30 = load ptr, ptr %12, align 8
  %31 = icmp ne ptr %28, %30
  %or.cond = select i1 %29, i1 %31, i1 false
  br i1 %or.cond, label %.lr.ph, label %.critedge, !llvm.loop !18

.critedge:                                        ; preds = %27, %14
  call void @_ZNSt7__cxx1112basic_stringIcSt11char_traitsIcESaIcEED1Ev(ptr noundef nonnull align 8 dereferenceable(32) %4) #19
  %32 = add nuw i64 %.01627, 1
  %33 = call noundef i64 @_ZNKSt7__cxx1112basic_stringIcSt11char_traitsIcESaIcEE4findEcm(ptr noundef nonnull align 8 dereferenceable(32) %6, i8 noundef signext 47, i64 noundef %32) #19
  %34 = call noundef zeroext i1 @_ZNKSt7__cxx1112basic_stringIcSt11char_traitsIcESaIcEE5emptyEv(ptr noundef nonnull align 8 dereferenceable(32) %8) #19
  %35 = icmp ne i64 %33, -1
  %36 = and i1 %34, %35
  br i1 %36, label %13, label %._crit_edge, !llvm.loop !19

._crit_edge:                                      ; preds = %.critedge, %3
  %37 = call noundef nonnull align 8 dereferenceable(32) ptr @_ZNSt7__cxx1112basic_stringIcSt11char_traitsIcESaIcEEpLEPKc(ptr noundef nonnull align 8 dereferenceable(32) %8, ptr noundef nonnull @.str.18)
  %38 = getelementptr inbounds i8, ptr %0, i64 16
  %39 = load ptr, ptr %38, align 8
  %40 = call noundef nonnull align 8 dereferenceable(8) ptr @_ZStlsISt11char_traitsIcEERSt13basic_ostreamIcT_ES5_PKc(ptr noundef nonnull align 8 dereferenceable(8) %39, ptr noundef nonnull @.str.19)
  %41 = call noundef nonnull align 8 dereferenceable(8) ptr @_ZStlsIcSt11char_traitsIcESaIcEERSt13basic_ostreamIT_T0_ES7_RKNSt7__cxx1112basic_stringIS4_S5_T1_EE(ptr noundef nonnull align 8 dereferenceable(8) %40, ptr noundef nonnull align 8 dereferenceable(32) %8)
  %42 = call noundef nonnull align 8 dereferenceable(8) ptr @_ZStlsISt11char_traitsIcEERSt13basic_ostreamIcT_ES5_PKc(ptr noundef nonnull align 8 dereferenceable(8) %41, ptr noundef nonnull @.str.8)
  ret void

43:                                               ; preds = %25, %23
  %.sink = phi ptr [ %4, %25 ], [ %5, %23 ]
  %.pn = phi { ptr, i32 } [ %26, %25 ], [ %24, %23 ]
  call void @_ZNSt7__cxx1112basic_stringIcSt11char_traitsIcESaIcEED1Ev(ptr noundef nonnull align 8 dereferenceable(32) %.sink) #19
  resume { ptr, i32 } %.pn
}